target datalayout = "e-m:e-p270:32:32-p271:32:32-p272:64:64-i64:64-i128:128-f80:128-n8:16:32:64-S128"
target triple = "x86_64-pc-linux-gnu"

%"class.lean::name" = type { %"class.lean::object_ref" }
%"class.lean::object_ref" = type { ptr }
%"struct.lean::rb_tree<lean::name, lean::name_quick_cmp>::node" = type { ptr }
%"class.lean::rb_tree" = type { %"struct.lean::rb_tree<lean::name, lean::name_quick_cmp>::node" }
%"struct.lean::name_quick_cmp" = type { i8 }
%"class.lean::rb_map" = type { %"class.lean::rb_tree.0" }
%"class.lean::rb_tree.0" = type { %"struct.lean::rb_tree<std::pair<lean::name, lean::rb_tree<lean::name, lean::name_quick_cmp>>, lean::rb_map<lean::name, lean::rb_tree<lean::name, lean::name_quick_cmp>, lean::name_quick_cmp>::entry_cmp>::node" }
%"struct.lean::rb_tree<std::pair<lean::name, lean::rb_tree<lean::name, lean::name_quick_cmp>>, lean::rb_map<lean::name, lean::rb_tree<lean::name, lean::name_quick_cmp>, lean::name_quick_cmp>::entry_cmp>::node" = type { ptr }
%"class.std::initializer_list" = type { ptr, i64 }
%"struct.lean::rb_map<lean::name, lean::rb_tree<lean::name, lean::name_quick_cmp>, lean::name_quick_cmp>::entry_cmp" = type { i8 }

@_ZN4leanL15g_trace_classesE = internal global ptr null, align 8
@_ZN4leanL15g_trace_aliasesE = internal global ptr null, align 8
@.str.5 = private unnamed_addr constant [6 x i8] c"debug\00", align 1

; Function Attrs: inlinehint mustprogress nounwind uwtable
define internal noundef ptr @_ZL8lean_boxm(i64 noundef %0) #3 {
  %2 = alloca i64, align 8
  store i64 %0, ptr %2, align 8, !tbaa !55
  %3 = load i64, ptr %2, align 8, !tbaa !55
  %4 = shl i64 %3, 1
  %5 = or i64 %4, 1
  %6 = inttoptr i64 %5 to ptr
  ret ptr %6
}

; Function Attrs: mustprogress nounwind uwtable
define linkonce_odr hidden void @_ZN4lean7rb_treeISt4pairINS_4nameENS0_IS2_NS_14name_quick_cmpEEEENS_6rb_mapIS2_S4_S3_E9entry_cmpEE4nodeC2Ev(ptr noundef nonnull align 8 dereferenceable(8) %0) unnamed_addr #4 comdat align 2 {
  %2 = alloca ptr, align 8
  store ptr %0, ptr %2, align 8, !tbaa !161
  %3 = load ptr, ptr %2, align 8
  %4 = getelementptr inbounds nuw %"struct.lean::rb_tree<std::pair<lean::name, lean::rb_tree<lean::name, lean::name_quick_cmp>>, lean::rb_map<lean::name, lean::rb_tree<lean::name, lean::name_quick_cmp>, lean::name_quick_cmp>::entry_cmp>::node", ptr %3, i32 0, i32 0
  store ptr null, ptr %4, align 8, !tbaa !163
  ret void
}

; Function Attrs: mustprogress nounwind uwtable
define linkonce_odr hidden void @_ZN4lean10object_refC2EP11lean_object(ptr noundef nonnull align 8 dereferenceable(8) %0, ptr noundef %1) unnamed_addr #4 comdat align 2 {
  %3 = alloca ptr, align 8
  %4 = alloca ptr, align 8
  store ptr %0, ptr %3, align 8, !tbaa !77
  store ptr %1, ptr %4, align 8, !tbaa !48
  %5 = load ptr, ptr %3, align 8
  %6 = getelementptr inbounds nuw %"class.lean::object_ref", ptr %5, i32 0, i32 0
  %7 = load ptr, ptr %4, align 8, !tbaa !48
  store ptr %7, ptr %6, align 8, !tbaa !79
  ret void
}

; Function Attrs: inlinehint mustprogress uwtable
define linkonce_odr hidden noundef ptr @_ZN4lean3boxEm(i64 noundef %0) #7 comdat {
  %2 = alloca i64, align 8
  store i64 %0, ptr %2, align 8, !tbaa !55
  %3 = load i64, ptr %2, align 8, !tbaa !55
  %4 = call noundef ptr @_ZL8lean_boxm(i64 noundef %3)
  ret ptr %4
}

; Function Attrs: mustprogress uwtable
define linkonce_odr hidden void @_ZN4lean7rb_treeISt4pairINS_4nameENS0_IS2_NS_14name_quick_cmpEEEENS_6rb_mapIS2_S4_S3_E9entry_cmpEEC2ERKS8_(ptr noundef nonnull align 8 dereferenceable(8) %0, ptr noundef nonnull align 1 dereferenceable(1) %1) unnamed_addr #0 comdat align 2 {
  %3 = alloca ptr, align 8
  %4 = alloca ptr, align 8
  store ptr %0, ptr %3, align 8, !tbaa !159
  store ptr %1, ptr %4, align 8, !tbaa !187
  %5 = load ptr, ptr %3, align 8
  %6 = getelementptr inbounds nuw %"class.lean::rb_tree.0", ptr %5, i32 0, i32 0
  call void @_ZN4lean7rb_treeISt4pairINS_4nameENS0_IS2_NS_14name_quick_cmpEEEENS_6rb_mapIS2_S4_S3_E9entry_cmpEE4nodeC2Ev(ptr noundef nonnull align 8 dereferenceable(8) %6)
  ret void
}

; Function Attrs: mustprogress nounwind uwtable
define linkonce_odr hidden void @_ZN4lean6rb_mapINS_4nameENS_7rb_treeIS1_NS_14name_quick_cmpEEES3_E9entry_cmpC2ERKS3_(ptr noundef nonnull align 1 dereferenceable(1) %0, ptr noundef nonnull align 1 dereferenceable(1) %1) unnamed_addr #4 comdat align 2 {
  %3 = alloca ptr, align 8
  %4 = alloca ptr, align 8
  store ptr %0, ptr %3, align 8, !tbaa !187
  store ptr %1, ptr %4, align 8, !tbaa !14
  ret void
}

; Function Attrs: mustprogress nounwind uwtable
define linkonce_odr hidden void @_ZN4lean7rb_treeINS_4nameENS_14name_quick_cmpEE4nodeC2Ev(ptr noundef nonnull align 8 dereferenceable(8) %0) unnamed_addr #4 comdat align 2 {
  %2 = alloca ptr, align 8
  store ptr %0, ptr %2, align 8, !tbaa !86
  %3 = load ptr, ptr %2, align 8
  %4 = getelementptr inbounds nuw %"struct.lean::rb_tree<lean::name, lean::name_quick_cmp>::node", ptr %3, i32 0, i32 0
  store ptr null, ptr %4, align 8, !tbaa !88
  ret void
}

; Function Attrs: mustprogress uwtable
define linkonce_odr hidden void @_ZN4lean4nameC2Ev(ptr noundef nonnull align 8 dereferenceable(8) %0) unnamed_addr #0 comdat align 2 {
  %2 = alloca ptr, align 8
  store ptr %0, ptr %2, align 8, !tbaa !3
  %3 = load ptr, ptr %2, align 8
  %4 = call noundef ptr @_ZN4lean3boxEm(i64 noundef 0)
  call void @_ZN4lean10object_refC2EP11lean_object(ptr noundef nonnull align 8 dereferenceable(8) %3, ptr noundef %4)
  ret void
}

; Function Attrs: mustprogress uwtable
define linkonce_odr hidden void @_ZN4lean6rb_mapINS_4nameENS_7rb_treeIS1_NS_14name_quick_cmpEEES3_EC2ERKS3_(ptr noundef nonnull align 8 dereferenceable(8) %0, ptr noundef nonnull align 1 dereferenceable(1) %1) unnamed_addr #0 comdat align 2 {
  %3 = alloca ptr, align 8
  %4 = alloca ptr, align 8
  %5 = alloca %"struct.lean::rb_map<lean::name, lean::rb_tree<lean::name, lean::name_quick_cmp>, lean::name_quick_cmp>::entry_cmp", align 1
  store ptr %0, ptr %3, align 8, !tbaa !12
  store ptr %1, ptr %4, align 8, !tbaa !14
  %6 = load ptr, ptr %3, align 8
  %7 = getelementptr inbounds nuw %"class.lean::rb_map", ptr %6, i32 0, i32 0
  call void @llvm.lifetime.start.p0(i64 1, ptr %5) #17
  %8 = load ptr, ptr %4, align 8, !tbaa !14
  call void @_ZN4lean6rb_mapINS_4nameENS_7rb_treeIS1_NS_14name_quick_cmpEEES3_E9entry_cmpC2ERKS3_(ptr noundef nonnull align 1 dereferenceable(1) %5, ptr noundef nonnull align 1 dereferenceable(1) %8)
  call void @_ZN4lean7rb_treeISt4pairINS_4nameENS0_IS2_NS_14name_quick_cmpEEEENS_6rb_mapIS2_S4_S3_E9entry_cmpEEC2ERKS8_(ptr noundef nonnull align 8 dereferenceable(8) %7, ptr noundef nonnull align 1 dereferenceable(1) %5)
  call void @llvm.lifetime.end.p0(i64 1, ptr %5) #17
  ret void
}

; Function Attrs: mustprogress uwtable
define linkonce_odr hidden void @_ZN4lean7rb_treeINS_4nameENS_14name_quick_cmpEEC2ERKS2_(ptr noundef nonnull align 8 dereferenceable(8) %0, ptr noundef nonnull align 1 dereferenceable(1) %1) unnamed_addr #0 comdat align 2 {
  %3 = alloca ptr, align 8
  %4 = alloca ptr, align 8
  store ptr %0, ptr %3, align 8, !tbaa !8
  store ptr %1, ptr %4, align 8, !tbaa !14
  %5 = load ptr, ptr %3, align 8
  %6 = getelementptr inbounds nuw %"class.lean::rb_tree", ptr %5, i32 0, i32 0
  call void @_ZN4lean7rb_treeINS_4nameENS_14name_quick_cmpEE4nodeC2Ev(ptr noundef nonnull align 8 dereferenceable(8) %6)
  ret void
}

; Function Attrs: mustprogress uwtable
define hidden void @_ZN4lean16initialize_traceEv() #0 personality ptr @__gxx_personality_v0 {
  %1 = alloca %"struct.lean::name_quick_cmp", align 1
  %2 = alloca ptr, align 8
  %3 = alloca i32, align 4
  %4 = alloca i1, align 1
  %5 = alloca %"struct.lean::name_quick_cmp", align 1
  %6 = alloca i1, align 1
  %7 = alloca %"class.lean::name", align 8
  %8 = alloca %"class.std::initializer_list", align 8
  %9 = alloca [1 x ptr], align 8
  %10 = alloca %"class.lean::name", align 8
  %11 = call noalias noundef nonnull ptr @_Znwm(i64 noundef 8) #18
  store i1 true, ptr %4, align 1
  call void @llvm.lifetime.start.p0(i64 1, ptr %1) #17
  invoke void @_ZN4lean7rb_treeINS_4nameENS_14name_quick_cmpEEC2ERKS2_(ptr noundef nonnull align 8 dereferenceable(8) %11, ptr noundef nonnull align 1 dereferenceable(1) %1)
          to label %12 unwind label %19

12:                                               ; preds = %0
  store i1 false, ptr %4, align 1
  store ptr %11, ptr @_ZN4leanL15g_trace_classesE, align 8, !tbaa !8
  call void @llvm.lifetime.end.p0(i64 1, ptr %1) #17
  %13 = call noalias noundef nonnull ptr @_Znwm(i64 noundef 8) #18
  store i1 true, ptr %6, align 1
  call void @llvm.lifetime.start.p0(i64 1, ptr %5) #17
  invoke void @_ZN4lean6rb_mapINS_4nameENS_7rb_treeIS1_NS_14name_quick_cmpEEES3_EC2ERKS3_(ptr noundef nonnull align 8 dereferenceable(8) %13, ptr noundef nonnull align 1 dereferenceable(1) %5)
          to label %14 unwind label %26

14:                                               ; preds = %12
  store i1 false, ptr %6, align 1
  store ptr %13, ptr @_ZN4leanL15g_trace_aliasesE, align 8, !tbaa !12
  call void @llvm.lifetime.end.p0(i64 1, ptr %5) #17
  call void @llvm.lifetime.start.p0(i64 8, ptr %7) #17
  call void @llvm.lifetime.start.p0(i64 16, ptr %8) #17
  call void @llvm.lifetime.start.p0(i64 8, ptr %9) #17
  store ptr @.str.5, ptr %9, align 8, !tbaa !10
  %15 = getelementptr inbounds nuw %"class.std::initializer_list", ptr %8, i32 0, i32 0
  store ptr %9, ptr %15, align 8, !tbaa !69
  %16 = getelementptr inbounds nuw %"class.std::initializer_list", ptr %8, i32 0, i32 1
  store i64 1, ptr %16, align 8, !tbaa !72
  call void @_ZN4lean4nameC1ERKSt16initializer_listIPKcE(ptr noundef nonnull align 8 dereferenceable(8) %7, ptr noundef nonnull align 8 dereferenceable(16) %8)
  call void @llvm.lifetime.start.p0(i64 8, ptr %10) #17
  invoke void @_ZN4lean4nameC2Ev(ptr noundef nonnull align 8 dereferenceable(8) %10)
          to label %17 unwind label %33

17:                                               ; preds = %14
  invoke void @_ZN4lean20register_trace_classERKNS_4nameES2_(ptr noundef nonnull align 8 dereferenceable(8) %7, ptr noundef nonnull align 8 dereferenceable(8) %10)
          to label %18 unwind label %37

18:                                               ; preds = %17
  call void @_ZN4lean10object_refD2Ev(ptr noundef nonnull align 8 dereferenceable(8) %10) #17
  call void @llvm.lifetime.end.p0(i64 8, ptr %10) #17
  call void @_ZN4lean10object_refD2Ev(ptr noundef nonnull align 8 dereferenceable(8) %7) #17
  call void @llvm.lifetime.end.p0(i64 8, ptr %9) #17
  call void @llvm.lifetime.end.p0(i64 16, ptr %8) #17
  call void @llvm.lifetime.end.p0(i64 8, ptr %7) #17
  ret void

19:                                               ; preds = %0
  %20 = landingpad { ptr, i32 }
          cleanup
  %21 = extractvalue { ptr, i32 } %20, 0
  store ptr %21, ptr %2, align 8
  %22 = extractvalue { ptr, i32 } %20, 1
  store i32 %22, ptr %3, align 4
  call void @llvm.lifetime.end.p0(i64 1, ptr %1) #17
  %23 = load i1, ptr %4, align 1
  br i1 %23, label %24, label %25

24:                                               ; preds = %19
  call void @_ZdlPvm(ptr noundef %11, i64 noundef 8) #21
  br label %25

25:                                               ; preds = %24, %19
  br label %42

26:                                               ; preds = %12
  %27 = landingpad { ptr, i32 }
          cleanup
  %28 = extractvalue { ptr, i32 } %27, 0
  store ptr %28, ptr %2, align 8
  %29 = extractvalue { ptr, i32 } %27, 1
  store i32 %29, ptr %3, align 4
  call void @llvm.lifetime.end.p0(i64 1, ptr %5) #17
  %30 = load i1, ptr %6, align 1
  br i1 %30, label %31, label %32

31:                                               ; preds = %26
  call void @_ZdlPvm(ptr noundef %13, i64 noundef 8) #21
  br label %32

32:                                               ; preds = %31, %26
  br label %42

33:                                               ; preds = %14
  %34 = landingpad { ptr, i32 }
          cleanup
  %35 = extractvalue { ptr, i32 } %34, 0
  store ptr %35, ptr %2, align 8
  %36 = extractvalue { ptr, i32 } %34, 1
  store i32 %36, ptr %3, align 4
  br label %41

37:                                               ; preds = %17
  %38 = landingpad { ptr, i32 }
          cleanup
  %39 = extractvalue { ptr, i32 } %38, 0
  store ptr %39, ptr %2, align 8
  %40 = extractvalue { ptr, i32 } %38, 1
  store i32 %40, ptr %3, align 4
  call void @_ZN4lean10object_refD2Ev(ptr noundef nonnull align 8 dereferenceable(8) %10) #17
  br label %41

41:                                               ; preds = %37, %33
  call void @llvm.lifetime.end.p0(i64 8, ptr %10) #17
  call void @_ZN4lean10object_refD2Ev(ptr noundef nonnull align 8 dereferenceable(8) %7) #17
  call void @llvm.lifetime.end.p0(i64 8, ptr %9) #17
  call void @llvm.lifetime.end.p0(i64 16, ptr %8) #17
  call void @llvm.lifetime.end.p0(i64 8, ptr %7) #17
  br label %42

42:                                               ; preds = %41, %32, %25
  %43 = load ptr, ptr %2, align 8
  %44 = load i32, ptr %3, align 4
  %45 = insertvalue { ptr, i32 } poison, ptr %43, 0
  %46 = insertvalue { ptr, i32 } %45, i32 %44, 1
  resume { ptr, i32 } %46
}