; Function Attrs: mustprogress uwtable
define hidden void @_ZN4lean16initialize_traceEv() local_unnamed_addr #0 personality ptr @__gxx_personality_v0 {
  %1 = alloca %"class.lean::name", align 8
  %2 = alloca %"class.std::initializer_list", align 8
  %3 = alloca [1 x ptr], align 8
  %4 = alloca %"class.lean::name", align 8
  %5 = tail call noalias noundef nonnull dereferenceable(8) ptr @_Znwm(i64 noundef 8) #23
  store ptr null, ptr %5, align 8, !tbaa !22
  store ptr %5, ptr @_ZN4leanL15g_trace_classesE, align 8, !tbaa !12
  %6 = tail call noalias noundef nonnull dereferenceable(8) ptr @_Znwm(i64 noundef 8) #23
  store ptr null, ptr %6, align 8, !tbaa !109
  store ptr %6, ptr @_ZN4leanL15g_trace_aliasesE, align 8, !tbaa !36
  call void @llvm.lifetime.start.p0(i64 8, ptr nonnull %1) #20
  call void @llvm.lifetime.start.p0(i64 16, ptr nonnull %2) #20
  call void @llvm.lifetime.start.p0(i64 8, ptr nonnull %3) #20
  store ptr @.str.5, ptr %3, align 8, !tbaa !111
  store ptr %3, ptr %2, align 8, !tbaa !112
  %7 = getelementptr inbounds nuw i8, ptr %2, i64 8
  store i64 1, ptr %7, align 8, !tbaa !115
  call void @_ZN4lean4nameC1ERKSt16initializer_listIPKcE(ptr noundef nonnull align 8 dereferenceable(8) %1, ptr noundef nonnull align 8 dereferenceable(16) %2)
  call void @llvm.lifetime.start.p0(i64 8, ptr nonnull %4) #20
  store ptr inttoptr (i64 1 to ptr), ptr %4, align 8, !tbaa !3
  invoke void @_ZN4lean20register_trace_classERKNS_4nameES2_(ptr noundef nonnull align 8 dereferenceable(8) %1, ptr noundef nonnull align 8 dereferenceable(8) %4)
          to label %8 unwind label %35

8:                                                ; preds = %0
  %9 = load ptr, ptr %4, align 8, !tbaa !3
  %10 = ptrtoint ptr %9 to i64
  %11 = and i64 %10, 1
  %.not.i.i = icmp eq i64 %11, 0
  br i1 %.not.i.i, label %12, label %_ZN4lean10object_refD2Ev.exit

12:                                               ; preds = %8
  %13 = load i32, ptr %9, align 4, !tbaa !8
  %14 = icmp sgt i32 %13, 1
  br i1 %14, label %15, label %17, !prof !11

15:                                               ; preds = %12
  %16 = add nsw i32 %13, -1
  store i32 %16, ptr %9, align 4, !tbaa !8
  br label %_ZN4lean10object_refD2Ev.exit

17:                                               ; preds = %12
  %.not.i.i.i = icmp eq i32 %13, 0
  br i1 %.not.i.i.i, label %_ZN4lean10object_refD2Ev.exit, label %18

18:                                               ; preds = %17
  invoke void @lean_dec_ref_cold(ptr noundef nonnull %9)
          to label %_ZN4lean10object_refD2Ev.exit unwind label %19

19:                                               ; preds = %18
  %20 = landingpad { ptr, i32 }
          catch ptr null
  %21 = extractvalue { ptr, i32 } %20, 0
  call void @__clang_call_terminate(ptr %21) #21
  unreachable

_ZN4lean10object_refD2Ev.exit:                    ; preds = %8, %15, %17, %18
  call void @llvm.lifetime.end.p0(i64 8, ptr nonnull %4) #20
  %22 = load ptr, ptr %1, align 8, !tbaa !3
  %23 = ptrtoint ptr %22 to i64
  %24 = and i64 %23, 1
  %.not.i.i7 = icmp eq i64 %24, 0
  br i1 %.not.i.i7, label %25, label %_ZN4lean10object_refD2Ev.exit9

25:                                               ; preds = %_ZN4lean10object_refD2Ev.exit
  %26 = load i32, ptr %22, align 4, !tbaa !8
  %27 = icmp sgt i32 %26, 1
  br i1 %27, label %28, label %30, !prof !11

28:                                               ; preds = %25
  %29 = add nsw i32 %26, -1
  store i32 %29, ptr %22, align 4, !tbaa !8
  br label %_ZN4lean10object_refD2Ev.exit9

30:                                               ; preds = %25
  %.not.i.i.i8 = icmp eq i32 %26, 0
  br i1 %.not.i.i.i8, label %_ZN4lean10object_refD2Ev.exit9, label %31

31:                                               ; preds = %30
  invoke void @lean_dec_ref_cold(ptr noundef nonnull %22)
          to label %_ZN4lean10object_refD2Ev.exit9 unwind label %32

32:                                               ; preds = %31
  %33 = landingpad { ptr, i32 }
          catch ptr null
  %34 = extractvalue { ptr, i32 } %33, 0
  call void @__clang_call_terminate(ptr %34) #21
  unreachable

_ZN4lean10object_refD2Ev.exit9:                   ; preds = %_ZN4lean10object_refD2Ev.exit, %28, %30, %31
  call void @llvm.lifetime.end.p0(i64 8, ptr nonnull %3) #20
  call void @llvm.lifetime.end.p0(i64 16, ptr nonnull %2) #20
  call void @llvm.lifetime.end.p0(i64 8, ptr nonnull %1) #20
  ret void

35:                                               ; preds = %0
  %36 = landingpad { ptr, i32 }
          cleanup
  call void @_ZN4lean10object_refD2Ev(ptr noundef nonnull align 8 dereferenceable(8) %4) #20
  call void @llvm.lifetime.end.p0(i64 8, ptr nonnull %4) #20
  call void @_ZN4lean10object_refD2Ev(ptr noundef nonnull align 8 dereferenceable(8) %1) #20
  call void @llvm.lifetime.end.p0(i64 8, ptr nonnull %3) #20
  call void @llvm.lifetime.end.p0(i64 16, ptr nonnull %2) #20
  call void @llvm.lifetime.end.p0(i64 8, ptr nonnull %1) #20
  resume { ptr, i32 } %36
}